; ModuleID = 'bench/git/original/error.ll'
source_filename = "bench/git/original/error.ll"
target datalayout = "e-m:e-p270:32:32-p271:32:32-p272:64:64-i64:64-i128:128-f80:128-n8:16:32:64-S128"
target triple = "x86_64-pc-linux-gnu"

@reftable_error_str.buf = internal global [250 x i8] zeroinitializer, align 16
@.str = private unnamed_addr constant [10 x i8] c"I/O error\00", align 1
@.str.1 = private unnamed_addr constant [22 x i8] c"corrupt reftable file\00", align 1
@.str.2 = private unnamed_addr constant [20 x i8] c"file does not exist\00", align 1
@.str.3 = private unnamed_addr constant [15 x i8] c"data is locked\00", align 1
@.str.4 = private unnamed_addr constant [27 x i8] c"misuse of the reftable API\00", align 1
@.str.5 = private unnamed_addr constant [13 x i8] c"zlib failure\00", align 1
@.str.6 = private unnamed_addr constant [18 x i8] c"wrote empty table\00", align 1
@.str.7 = private unnamed_addr constant [16 x i8] c"invalid refname\00", align 1
@.str.8 = private unnamed_addr constant [16 x i8] c"entry too large\00", align 1
@.str.9 = private unnamed_addr constant [27 x i8] c"data concurrently modified\00", align 1
@.str.10 = private unnamed_addr constant [14 x i8] c"out of memory\00", align 1
@.str.11 = private unnamed_addr constant [14 x i8] c"general error\00", align 1
@.str.12 = private unnamed_addr constant [22 x i8] c"unknown error code %d\00", align 1
@switch.table.reftable_error_str = private unnamed_addr constant [13 x ptr] [ptr @.str.10, ptr @.str.9, ptr @.str.8, ptr @.str.7, ptr poison, ptr @.str.6, ptr @.str.5, ptr @.str.4, ptr @.str.3, ptr @.str.2, ptr @.str.1, ptr @.str, ptr @.str.11], align 8

; Function Attrs: nofree nounwind uwtable
define dso_local noundef nonnull ptr @reftable_error_str(i32 noundef %0) local_unnamed_addr #0 {
  %switch.tableidx = add i32 %0, 13
  %2 = icmp ugt i32 %0, -14
  br i1 %2, label %switch.hole_check, label %3

3:                                                ; preds = %switch.hole_check, %1
  %4 = tail call i32 (ptr, i64, ptr, ...) @snprintf(ptr noundef nonnull dereferenceable(1) @reftable_error_str.buf, i64 noundef 250, ptr noundef nonnull @.str.12, i32 noundef %0) #2
  br label %6

switch.hole_check:                                ; preds = %1
  %switch.maskindex = trunc i32 %switch.tableidx to i16
  %switch.shifted = lshr i16 8175, %switch.maskindex
  %switch.lobit = trunc i16 %switch.shifted to i1
  br i1 %switch.lobit, label %switch.lookup, label %3

switch.lookup:                                    ; preds = %switch.hole_check
  %5 = sext i32 %switch.tableidx to i64
  %switch.gep = getelementptr inbounds [13 x ptr], ptr @switch.table.reftable_error_str, i64 0, i64 %5
  %switch.load = load ptr, ptr %switch.gep, align 8
  br label %6

6:                                                ; preds = %switch.lookup, %3
  %.0 = phi ptr [ @reftable_error_str.buf, %3 ], [ %switch.load, %switch.lookup ]
  ret ptr %.0
}

; Function Attrs: nofree nounwind
declare noundef i32 @snprintf(ptr noalias noundef writeonly captures(none), i64 noundef, ptr noundef readonly captures(none), ...) local_unnamed_addr #1


!llvm.module.flags = !{!0, !1, !2, !3}

!0 = !{i32 1, !"wchar_size", i32 4}
!1 = !{i32 8, !"PIC Level", i32 2}
!2 = !{i32 7, !"PIE Level", i32 2}
!3 = !{i32 7, !"uwtable", i32 2}
